target datalayout = "e-m:e-p270:32:32-p271:32:32-p272:64:64-i64:64-i128:128-f80:128-n8:16:32:64-S128"
target triple = "x86_64-pc-linux-gnu"

%struct.tds_conv_info_t = type { ptr, i32, i32, i32, i32, i32, i32, i32, i32, i8 }

@hf_tds_type_varbyte_data_double = internal global i32 0, align 4
@.str.1354 = private unnamed_addr constant [5 x i8] c"%.4f\00", align 1

; Function Attrs: nounwind null_pointer_is_valid sspstrong uwtable
define internal i32 @tds_get_int4_encoding(ptr noundef %0) #5 {
  %2 = alloca ptr, align 8
  store ptr %0, ptr %2, align 8
  %3 = load ptr, ptr %2, align 8
  %4 = getelementptr inbounds nuw %struct.tds_conv_info_t, ptr %3, i32 0, i32 5
  %5 = load i32, ptr %4, align 8
  %6 = icmp eq i32 %5, 0
  %7 = select i1 %6, i32 0, i32 -2147483648
  ret i32 %7
}

; Function Attrs: null_pointer_is_valid sspstrong uwtable
define internal void @handle_tds_sql_smallmoney(ptr noundef %0, i32 noundef %1, ptr noundef %2, ptr noundef %3) #0 {
  %5 = alloca ptr, align 8
  %6 = alloca i32, align 4
  %7 = alloca ptr, align 8
  %8 = alloca ptr, align 8
  %9 = alloca double, align 8
  store ptr %0, ptr %5, align 8
  store i32 %1, ptr %6, align 4
  store ptr %2, ptr %7, align 8
  store ptr %3, ptr %8, align 8
  call void @llvm.lifetime.start.p0(i64 8, ptr %9) #11
  %10 = load ptr, ptr %5, align 8
  %11 = load i32, ptr %6, align 4
  %12 = load ptr, ptr %8, align 8
  %13 = call i32 @tds_get_int4_encoding(ptr noundef %12)
  %14 = call i32 @tvb_get_uint32(ptr noundef %10, i32 noundef %11, i32 noundef %13)
  %15 = uitofp i32 %14 to float
  %16 = fpext float %15 to double
  store double %16, ptr %9, align 8
  %17 = load ptr, ptr %7, align 8
  %18 = load i32, ptr @hf_tds_type_varbyte_data_double, align 4
  %19 = load ptr, ptr %5, align 8
  %20 = load i32, ptr %6, align 4
  %21 = load double, ptr %9, align 8
  %22 = load double, ptr %9, align 8
  %23 = fdiv double %22, 1.000000e+04
  %24 = call ptr (ptr, i32, ptr, i32, i32, double, ptr, ...) @proto_tree_add_double_format_value(ptr noundef %17, i32 noundef %18, ptr noundef %19, i32 noundef %20, i32 noundef 4, double noundef %21, ptr noundef @.str.1354, double noundef %23)
  call void @llvm.lifetime.end.p0(i64 8, ptr %9) #11
  ret void
}