; Function Attrs: null_pointer_is_valid sspstrong uwtable
define internal fastcc void @handle_tds_sql_smallmoney(ptr noundef nonnull %0, i32 noundef %1, ptr noundef %2, i32 %.24.val) unnamed_addr #0 {
  %4 = icmp eq i32 %.24.val, 0
  %5 = select i1 %4, i32 0, i32 -2147483648
  %6 = tail call i32 @tvb_get_uint32(ptr noundef nonnull %0, i32 noundef %1, i32 noundef %5)
  %7 = uitofp i32 %6 to float
  %8 = fpext float %7 to double
  %9 = load i32, ptr @hf_tds_type_varbyte_data_double, align 4
  %10 = fdiv double %8, 1.000000e+04
  %11 = tail call ptr (ptr, i32, ptr, i32, i32, double, ptr, ...) @proto_tree_add_double_format_value(ptr noundef %2, i32 noundef %9, ptr noundef nonnull %0, i32 noundef %1, i32 noundef 4, double noundef %8, ptr noundef nonnull @.str.1354, double noundef %10)
  ret void
}